; Function Attrs: mustprogress uwtable
define hidden void @_ZN2cv3dnn14dnn4_v202412236detail12LayerHandler10addMissingERKNSt7__cxx1112basic_stringIcSt11char_traitsIcESaIcEEESB_(ptr noundef nonnull align 8 dereferenceable(56) %0, ptr noundef nonnull align 8 dereferenceable(32) %1, ptr noundef nonnull align 8 dereferenceable(32) %2) local_unnamed_addr #3 align 2 {
  %4 = alloca %"struct.std::__detail::_AllocNode", align 8
  %5 = tail call ptr @_ZNKSt10_HashtableINSt7__cxx1112basic_stringIcSt11char_traitsIcESaIcEEESt4pairIKS5_St13unordered_setIS5_St4hashIS5_ESt8equal_toIS5_ESaIS5_EEESaISF_ENSt8__detail10_Select1stESC_SA_NSH_18_Mod_range_hashingENSH_20_Default_ranged_hashENSH_20_Prime_rehash_policyENSH_17_Hashtable_traitsILb1ELb0ELb1EEEE4findERS7_(ptr noundef nonnull align 8 dereferenceable(56) %0, ptr noundef nonnull align 8 dereferenceable(32) %2)
  %.not.i.i.i.not = icmp eq ptr %5, null
  br i1 %.not.i.i.i.not, label %6, label %8

6:                                                ; preds = %3
  %7 = tail call noundef zeroext i1 @_ZN2cv3dnn14dnn4_v2024122312LayerFactory17isLayerRegisteredERKNSt7__cxx1112basic_stringIcSt11char_traitsIcESaIcEEE(ptr noundef nonnull align 8 dereferenceable(32) %2)
  br i1 %7, label %11, label %8

8:                                                ; preds = %6, %3
  %9 = tail call noundef nonnull align 8 dereferenceable(56) ptr @_ZNSt8__detail9_Map_baseINSt7__cxx1112basic_stringIcSt11char_traitsIcESaIcEEESt4pairIKS6_St13unordered_setIS6_St4hashIS6_ESt8equal_toIS6_ESaIS6_EEESaISG_ENS_10_Select1stESD_SB_NS_18_Mod_range_hashingENS_20_Default_ranged_hashENS_20_Prime_rehash_policyENS_17_Hashtable_traitsILb1ELb0ELb1EEELb1EEixERS8_(ptr noundef nonnull align 8 dereferenceable(56) %0, ptr noundef nonnull align 8 dereferenceable(32) %2)
  call void @llvm.lifetime.start.p0(i64 8, ptr nonnull %4) #23
  store ptr %9, ptr %4, align 8, !tbaa !7
  %10 = call { ptr, i8 } @_ZNSt10_HashtableINSt7__cxx1112basic_stringIcSt11char_traitsIcESaIcEEES5_SaIS5_ENSt8__detail9_IdentityESt8equal_toIS5_ESt4hashIS5_ENS7_18_Mod_range_hashingENS7_20_Default_ranged_hashENS7_20_Prime_rehash_policyENS7_17_Hashtable_traitsILb1ELb1ELb1EEEE16_M_insert_uniqueIRKS5_SL_NS7_10_AllocNodeISaINS7_10_Hash_nodeIS5_Lb1EEEEEEEESt4pairINS7_14_Node_iteratorIS5_Lb1ELb1EEEbEOT_OT0_RKT1_(ptr noundef nonnull align 8 dereferenceable(56) %9, ptr noundef nonnull align 8 dereferenceable(32) %1, ptr noundef nonnull align 8 dereferenceable(32) %1, ptr noundef nonnull align 8 dereferenceable(8) %4)
  call void @llvm.lifetime.end.p0(i64 8, ptr nonnull %4) #23
  br label %11

11:                                               ; preds = %6, %8
  ret void
}